target datalayout = "e-m:e-p270:32:32-p271:32:32-p272:64:64-i64:64-i128:128-f80:128-n8:16:32:64-S128"
target triple = "x86_64-pc-linux-gnu"

%struct.pkcs7_st = type { ptr, i64, i32, i32, ptr, %union.anon, %struct.PKCS7_CTX_st }
%union.anon = type { ptr }
%struct.PKCS7_CTX_st = type { ptr, ptr }
%struct.pkcs7_signed_st = type { ptr, ptr, ptr, ptr, ptr, ptr }
%struct.pkcs7_signedandenveloped_st = type { ptr, ptr, ptr, ptr, ptr, ptr, ptr }
%struct.pkcs7_issuer_and_serial_st = type { ptr, ptr }
%struct.pkcs7_signer_info_st = type { ptr, ptr, ptr, ptr, ptr, ptr, ptr, ptr, ptr }

@.str = private unnamed_addr constant [35 x i8] c"../openssl/crypto/pkcs7/pk7_doit.c\00", align 1
@__func__.PKCS7_dataVerify = private unnamed_addr constant [17 x i8] c"PKCS7_dataVerify\00", align 1

; Function Attrs: nounwind uwtable
define i32 @PKCS7_dataVerify(ptr noundef %0, ptr noundef %1, ptr noundef %2, ptr noundef %3, ptr noundef %4) #0 {
  %6 = alloca i32, align 4
  %7 = alloca ptr, align 8
  %8 = alloca ptr, align 8
  %9 = alloca ptr, align 8
  %10 = alloca ptr, align 8
  %11 = alloca ptr, align 8
  %12 = alloca ptr, align 8
  %13 = alloca i32, align 4
  %14 = alloca i32, align 4
  %15 = alloca ptr, align 8
  %16 = alloca ptr, align 8
  %17 = alloca ptr, align 8
  %18 = alloca i32, align 4
  store ptr %0, ptr %7, align 8, !tbaa !121
  store ptr %1, ptr %8, align 8, !tbaa !123
  store ptr %2, ptr %9, align 8, !tbaa !20
  store ptr %3, ptr %10, align 8, !tbaa !3
  store ptr %4, ptr %11, align 8, !tbaa !107
  call void @llvm.lifetime.start.p0(i64 8, ptr %12) #5
  call void @llvm.lifetime.start.p0(i64 4, ptr %13) #5
  store i32 0, ptr %13, align 4, !tbaa !8
  call void @llvm.lifetime.start.p0(i64 4, ptr %14) #5
  call void @llvm.lifetime.start.p0(i64 8, ptr %15) #5
  call void @llvm.lifetime.start.p0(i64 8, ptr %16) #5
  call void @llvm.lifetime.start.p0(i64 8, ptr %17) #5
  %19 = load ptr, ptr %10, align 8, !tbaa !3
  %20 = icmp eq ptr %19, null
  br i1 %20, label %21, label %22

21:                                               ; preds = %5
  call void @ERR_new()
  call void @ERR_set_debug(ptr noundef @.str, i32 noundef 1011, ptr noundef @__func__.PKCS7_dataVerify)
  call void (i32, i32, ptr, ...) @ERR_set_error(i32 noundef 33, i32 noundef 143, ptr noundef null)
  store i32 0, ptr %6, align 4
  store i32 1, ptr %18, align 4
  br label %105

22:                                               ; preds = %5
  %23 = load ptr, ptr %10, align 8, !tbaa !3
  %24 = getelementptr inbounds nuw %struct.pkcs7_st, ptr %23, i32 0, i32 5
  %25 = load ptr, ptr %24, align 8, !tbaa !17
  %26 = icmp eq ptr %25, null
  br i1 %26, label %27, label %28

27:                                               ; preds = %22
  call void @ERR_new()
  call void @ERR_set_debug(ptr noundef @.str, i32 noundef 1016, ptr noundef @__func__.PKCS7_dataVerify)
  call void (i32, i32, ptr, ...) @ERR_set_error(i32 noundef 33, i32 noundef 122, ptr noundef null)
  store i32 0, ptr %6, align 4
  store i32 1, ptr %18, align 4
  br label %105

28:                                               ; preds = %22
  %29 = load ptr, ptr %10, align 8, !tbaa !3
  %30 = getelementptr inbounds nuw %struct.pkcs7_st, ptr %29, i32 0, i32 4
  %31 = load ptr, ptr %30, align 8, !tbaa !10
  %32 = call i32 @OBJ_obj2nid(ptr noundef %31)
  %33 = icmp eq i32 %32, 22
  br i1 %33, label %34, label %45

34:                                               ; preds = %28
  %35 = load ptr, ptr %10, align 8, !tbaa !3
  %36 = getelementptr inbounds nuw %struct.pkcs7_st, ptr %35, i32 0, i32 5
  %37 = load ptr, ptr %36, align 8, !tbaa !17
  %38 = getelementptr inbounds nuw %struct.pkcs7_signed_st, ptr %37, i32 0, i32 2
  %39 = load ptr, ptr %38, align 8, !tbaa !125
  store ptr %39, ptr %15, align 8, !tbaa !126
  %40 = load ptr, ptr %10, align 8, !tbaa !3
  %41 = getelementptr inbounds nuw %struct.pkcs7_st, ptr %40, i32 0, i32 5
  %42 = load ptr, ptr %41, align 8, !tbaa !17
  %43 = getelementptr inbounds nuw %struct.pkcs7_signed_st, ptr %42, i32 0, i32 3
  %44 = load ptr, ptr %43, align 8, !tbaa !127
  store ptr %44, ptr %16, align 8, !tbaa !128
  br label %64

45:                                               ; preds = %28
  %46 = load ptr, ptr %10, align 8, !tbaa !3
  %47 = getelementptr inbounds nuw %struct.pkcs7_st, ptr %46, i32 0, i32 4
  %48 = load ptr, ptr %47, align 8, !tbaa !10
  %49 = call i32 @OBJ_obj2nid(ptr noundef %48)
  %50 = icmp eq i32 %49, 24
  br i1 %50, label %51, label %62

51:                                               ; preds = %45
  %52 = load ptr, ptr %10, align 8, !tbaa !3
  %53 = getelementptr inbounds nuw %struct.pkcs7_st, ptr %52, i32 0, i32 5
  %54 = load ptr, ptr %53, align 8, !tbaa !17
  %55 = getelementptr inbounds nuw %struct.pkcs7_signedandenveloped_st, ptr %54, i32 0, i32 2
  %56 = load ptr, ptr %55, align 8, !tbaa !129
  store ptr %56, ptr %15, align 8, !tbaa !126
  %57 = load ptr, ptr %10, align 8, !tbaa !3
  %58 = getelementptr inbounds nuw %struct.pkcs7_st, ptr %57, i32 0, i32 5
  %59 = load ptr, ptr %58, align 8, !tbaa !17
  %60 = getelementptr inbounds nuw %struct.pkcs7_signedandenveloped_st, ptr %59, i32 0, i32 3
  %61 = load ptr, ptr %60, align 8, !tbaa !130
  store ptr %61, ptr %16, align 8, !tbaa !128
  br label %63

62:                                               ; preds = %45
  call void @ERR_new()
  call void @ERR_set_debug(ptr noundef @.str, i32 noundef 1027, ptr noundef @__func__.PKCS7_dataVerify)
  call void (i32, i32, ptr, ...) @ERR_set_error(i32 noundef 33, i32 noundef 114, ptr noundef null)
  br label %103

63:                                               ; preds = %51
  br label %64

64:                                               ; preds = %63, %34
  %65 = load ptr, ptr %8, align 8, !tbaa !123
  %66 = load ptr, ptr %16, align 8, !tbaa !128
  call void @X509_STORE_CTX_set0_crls(ptr noundef %65, ptr noundef %66)
  %67 = load ptr, ptr %11, align 8, !tbaa !107
  %68 = getelementptr inbounds nuw %struct.pkcs7_signer_info_st, ptr %67, i32 0, i32 1
  %69 = load ptr, ptr %68, align 8, !tbaa !131
  store ptr %69, ptr %12, align 8, !tbaa !132
  %70 = load ptr, ptr %15, align 8, !tbaa !126
  %71 = load ptr, ptr %12, align 8, !tbaa !132
  %72 = getelementptr inbounds nuw %struct.pkcs7_issuer_and_serial_st, ptr %71, i32 0, i32 0
  %73 = load ptr, ptr %72, align 8, !tbaa !93
  %74 = load ptr, ptr %12, align 8, !tbaa !132
  %75 = getelementptr inbounds nuw %struct.pkcs7_issuer_and_serial_st, ptr %74, i32 0, i32 1
  %76 = load ptr, ptr %75, align 8, !tbaa !96
  %77 = call ptr @X509_find_by_issuer_and_serial(ptr noundef %70, ptr noundef %73, ptr noundef %76)
  store ptr %77, ptr %17, align 8, !tbaa !87
  %78 = load ptr, ptr %17, align 8, !tbaa !87
  %79 = icmp eq ptr %78, null
  br i1 %79, label %80, label %81

80:                                               ; preds = %64
  call void @ERR_new()
  call void @ERR_set_debug(ptr noundef @.str, i32 noundef 1039, ptr noundef @__func__.PKCS7_dataVerify)
  call void (i32, i32, ptr, ...) @ERR_set_error(i32 noundef 33, i32 noundef 106, ptr noundef null)
  br label %103

81:                                               ; preds = %64
  %82 = load ptr, ptr %8, align 8, !tbaa !123
  %83 = load ptr, ptr %7, align 8, !tbaa !121
  %84 = load ptr, ptr %17, align 8, !tbaa !87
  %85 = load ptr, ptr %15, align 8, !tbaa !126
  %86 = call i32 @X509_STORE_CTX_init(ptr noundef %82, ptr noundef %83, ptr noundef %84, ptr noundef %85)
  %87 = icmp ne i32 %86, 0
  br i1 %87, label %89, label %88

88:                                               ; preds = %81
  call void @ERR_new()
  call void @ERR_set_debug(ptr noundef @.str, i32 noundef 1045, ptr noundef @__func__.PKCS7_dataVerify)
  call void (i32, i32, ptr, ...) @ERR_set_error(i32 noundef 33, i32 noundef 524299, ptr noundef null)
  br label %103

89:                                               ; preds = %81
  %90 = load ptr, ptr %8, align 8, !tbaa !123
  %91 = call i32 @X509_STORE_CTX_set_purpose(ptr noundef %90, i32 noundef 4)
  %92 = load ptr, ptr %8, align 8, !tbaa !123
  %93 = call i32 @X509_verify_cert(ptr noundef %92)
  store i32 %93, ptr %14, align 4, !tbaa !8
  %94 = load i32, ptr %14, align 4, !tbaa !8
  %95 = icmp sle i32 %94, 0
  br i1 %95, label %96, label %97

96:                                               ; preds = %89
  call void @ERR_new()
  call void @ERR_set_debug(ptr noundef @.str, i32 noundef 1051, ptr noundef @__func__.PKCS7_dataVerify)
  call void (i32, i32, ptr, ...) @ERR_set_error(i32 noundef 33, i32 noundef 524299, ptr noundef null)
  br label %103

97:                                               ; preds = %89
  %98 = load ptr, ptr %9, align 8, !tbaa !20
  %99 = load ptr, ptr %10, align 8, !tbaa !3
  %100 = load ptr, ptr %11, align 8, !tbaa !107
  %101 = load ptr, ptr %17, align 8, !tbaa !87
  %102 = call i32 @PKCS7_signatureVerify(ptr noundef %98, ptr noundef %99, ptr noundef %100, ptr noundef %101)
  store i32 %102, ptr %6, align 4
  store i32 1, ptr %18, align 4
  br label %105

103:                                              ; preds = %96, %88, %80, %62
  %104 = load i32, ptr %13, align 4, !tbaa !8
  store i32 %104, ptr %6, align 4
  store i32 1, ptr %18, align 4
  br label %105

105:                                              ; preds = %103, %97, %27, %21
  call void @llvm.lifetime.end.p0(i64 8, ptr %17) #5
  call void @llvm.lifetime.end.p0(i64 8, ptr %16) #5
  call void @llvm.lifetime.end.p0(i64 8, ptr %15) #5
  call void @llvm.lifetime.end.p0(i64 4, ptr %14) #5
  call void @llvm.lifetime.end.p0(i64 4, ptr %13) #5
  call void @llvm.lifetime.end.p0(i64 8, ptr %12) #5
  %106 = load i32, ptr %6, align 4
  ret i32 %106
}