; Function Attrs: nounwind uwtable
define range(i32 -1, 2) i32 @PKCS7_dataVerify(ptr noundef %0, ptr noundef %1, ptr noundef %2, ptr noundef %3, ptr noundef readonly captures(none) %4) local_unnamed_addr #0 {
  %6 = icmp eq ptr %3, null
  br i1 %6, label %7, label %8

7:                                                ; preds = %5
  tail call void @ERR_new() #4
  tail call void @ERR_set_debug(ptr noundef nonnull @.str, i32 noundef 1011, ptr noundef nonnull @__func__.PKCS7_dataVerify) #4
  tail call void (i32, i32, ptr, ...) @ERR_set_error(i32 noundef 33, i32 noundef 143, ptr noundef null) #4
  br label %42

8:                                                ; preds = %5
  %9 = getelementptr inbounds nuw i8, ptr %3, i64 32
  %10 = load ptr, ptr %9, align 8, !tbaa !14
  %11 = icmp eq ptr %10, null
  br i1 %11, label %12, label %13

12:                                               ; preds = %8
  tail call void @ERR_new() #4
  tail call void @ERR_set_debug(ptr noundef nonnull @.str, i32 noundef 1016, ptr noundef nonnull @__func__.PKCS7_dataVerify) #4
  tail call void (i32, i32, ptr, ...) @ERR_set_error(i32 noundef 33, i32 noundef 122, ptr noundef null) #4
  br label %42

13:                                               ; preds = %8
  %14 = getelementptr inbounds nuw i8, ptr %3, i64 24
  %15 = load ptr, ptr %14, align 8, !tbaa !3
  %16 = tail call i32 @OBJ_obj2nid(ptr noundef %15) #4
  %17 = icmp eq i32 %16, 22
  br i1 %17, label %23, label %18

18:                                               ; preds = %13
  %19 = load ptr, ptr %14, align 8, !tbaa !3
  %20 = tail call i32 @OBJ_obj2nid(ptr noundef %19) #4
  %21 = icmp eq i32 %20, 24
  br i1 %21, label %23, label %22

22:                                               ; preds = %18
  tail call void @ERR_new() #4
  tail call void @ERR_set_debug(ptr noundef nonnull @.str, i32 noundef 1027, ptr noundef nonnull @__func__.PKCS7_dataVerify) #4
  tail call void (i32, i32, ptr, ...) @ERR_set_error(i32 noundef 33, i32 noundef 114, ptr noundef null) #4
  br label %42

23:                                               ; preds = %18, %13
  %.pn = load ptr, ptr %9, align 8, !tbaa !14
  %.027.in = getelementptr inbounds nuw i8, ptr %.pn, i64 24
  %.027 = load ptr, ptr %.027.in, align 8, !tbaa !97
  %.028.in = getelementptr inbounds nuw i8, ptr %.pn, i64 16
  %.028 = load ptr, ptr %.028.in, align 8, !tbaa !98
  tail call void @X509_STORE_CTX_set0_crls(ptr noundef %1, ptr noundef %.027) #4
  %24 = getelementptr inbounds nuw i8, ptr %4, i64 8
  %25 = load ptr, ptr %24, align 8, !tbaa !99
  %26 = load ptr, ptr %25, align 8, !tbaa !72
  %27 = getelementptr inbounds nuw i8, ptr %25, i64 8
  %28 = load ptr, ptr %27, align 8, !tbaa !75
  %29 = tail call ptr @X509_find_by_issuer_and_serial(ptr noundef %.028, ptr noundef %26, ptr noundef %28) #4
  %30 = icmp eq ptr %29, null
  br i1 %30, label %31, label %32

31:                                               ; preds = %23
  tail call void @ERR_new() #4
  tail call void @ERR_set_debug(ptr noundef nonnull @.str, i32 noundef 1039, ptr noundef nonnull @__func__.PKCS7_dataVerify) #4
  tail call void (i32, i32, ptr, ...) @ERR_set_error(i32 noundef 33, i32 noundef 106, ptr noundef null) #4
  br label %42

32:                                               ; preds = %23
  %33 = tail call i32 @X509_STORE_CTX_init(ptr noundef %1, ptr noundef %0, ptr noundef nonnull %29, ptr noundef %.028) #4
  %.not = icmp eq i32 %33, 0
  br i1 %.not, label %34, label %35

34:                                               ; preds = %32
  tail call void @ERR_new() #4
  tail call void @ERR_set_debug(ptr noundef nonnull @.str, i32 noundef 1045, ptr noundef nonnull @__func__.PKCS7_dataVerify) #4
  tail call void (i32, i32, ptr, ...) @ERR_set_error(i32 noundef 33, i32 noundef 524299, ptr noundef null) #4
  br label %42

35:                                               ; preds = %32
  %36 = tail call i32 @X509_STORE_CTX_set_purpose(ptr noundef %1, i32 noundef 4) #4
  %37 = tail call i32 @X509_verify_cert(ptr noundef %1) #4
  %38 = icmp slt i32 %37, 1
  br i1 %38, label %39, label %40

39:                                               ; preds = %35
  tail call void @ERR_new() #4
  tail call void @ERR_set_debug(ptr noundef nonnull @.str, i32 noundef 1051, ptr noundef nonnull @__func__.PKCS7_dataVerify) #4
  tail call void (i32, i32, ptr, ...) @ERR_set_error(i32 noundef 33, i32 noundef 524299, ptr noundef null) #4
  br label %42

40:                                               ; preds = %35
  %41 = tail call i32 @PKCS7_signatureVerify(ptr noundef %2, ptr noundef nonnull %3, ptr noundef nonnull %4, ptr noundef nonnull %29)
  br label %42

42:                                               ; preds = %22, %31, %34, %39, %40, %12, %7
  %.0 = phi i32 [ 0, %7 ], [ 0, %12 ], [ %41, %40 ], [ 0, %39 ], [ 0, %34 ], [ 0, %31 ], [ 0, %22 ]
  ret i32 %.0
}